target datalayout = "e-m:e-p270:32:32-p271:32:32-p272:64:64-i64:64-i128:128-f80:128-n8:16:32:64-S128"
target triple = "x86_64-pc-linux-gnu"

%struct.PayloadContext = type { ptr, i32, ptr, ptr, i32, [8256 x i8], i32 }

; Function Attrs: nounwind uwtable
define internal void @rdt_close_context(ptr noundef %0) #0 {
  %2 = alloca ptr, align 8
  %3 = alloca i32, align 4
  store ptr %0, ptr %2, align 8, !tbaa !76
  call void @llvm.lifetime.start.p0(i64 4, ptr %3) #12
  store i32 0, ptr %3, align 4, !tbaa !9
  br label %4

4:                                                ; preds = %34, %1
  %5 = load i32, ptr %3, align 4, !tbaa !9
  %6 = load ptr, ptr %2, align 8, !tbaa !76
  %7 = getelementptr inbounds nuw %struct.PayloadContext, ptr %6, i32 0, i32 1
  %8 = load i32, ptr %7, align 8, !tbaa !95
  %9 = icmp slt i32 %5, %8
  br i1 %9, label %10, label %37

10:                                               ; preds = %4
  %11 = load ptr, ptr %2, align 8, !tbaa !76
  %12 = getelementptr inbounds nuw %struct.PayloadContext, ptr %11, i32 0, i32 2
  %13 = load ptr, ptr %12, align 8, !tbaa !96
  %14 = load i32, ptr %3, align 4, !tbaa !9
  %15 = sext i32 %14 to i64
  %16 = getelementptr inbounds ptr, ptr %13, i64 %15
  %17 = load ptr, ptr %16, align 8, !tbaa !97
  %18 = icmp ne ptr %17, null
  br i1 %18, label %19, label %33

19:                                               ; preds = %10
  %20 = load ptr, ptr %2, align 8, !tbaa !76
  %21 = getelementptr inbounds nuw %struct.PayloadContext, ptr %20, i32 0, i32 2
  %22 = load ptr, ptr %21, align 8, !tbaa !96
  %23 = load i32, ptr %3, align 4, !tbaa !9
  %24 = sext i32 %23 to i64
  %25 = getelementptr inbounds ptr, ptr %22, i64 %24
  %26 = load ptr, ptr %25, align 8, !tbaa !97
  call void @ff_rm_free_rmstream(ptr noundef %26)
  %27 = load ptr, ptr %2, align 8, !tbaa !76
  %28 = getelementptr inbounds nuw %struct.PayloadContext, ptr %27, i32 0, i32 2
  %29 = load ptr, ptr %28, align 8, !tbaa !96
  %30 = load i32, ptr %3, align 4, !tbaa !9
  %31 = sext i32 %30 to i64
  %32 = getelementptr inbounds ptr, ptr %29, i64 %31
  call void @av_freep(ptr noundef %32)
  br label %33

33:                                               ; preds = %19, %10
  br label %34

34:                                               ; preds = %33
  %35 = load i32, ptr %3, align 4, !tbaa !9
  %36 = add nsw i32 %35, 1
  store i32 %36, ptr %3, align 4, !tbaa !9
  br label %4, !llvm.loop !100

37:                                               ; preds = %4
  %38 = load ptr, ptr %2, align 8, !tbaa !76
  %39 = getelementptr inbounds nuw %struct.PayloadContext, ptr %38, i32 0, i32 0
  %40 = load ptr, ptr %39, align 8, !tbaa !78
  %41 = icmp ne ptr %40, null
  br i1 %41, label %42, label %45

42:                                               ; preds = %37
  %43 = load ptr, ptr %2, align 8, !tbaa !76
  %44 = getelementptr inbounds nuw %struct.PayloadContext, ptr %43, i32 0, i32 0
  call void @avformat_close_input(ptr noundef %44)
  br label %45

45:                                               ; preds = %42, %37
  %46 = load ptr, ptr %2, align 8, !tbaa !76
  %47 = getelementptr inbounds nuw %struct.PayloadContext, ptr %46, i32 0, i32 3
  call void @av_freep(ptr noundef %47)
  %48 = load ptr, ptr %2, align 8, !tbaa !76
  %49 = getelementptr inbounds nuw %struct.PayloadContext, ptr %48, i32 0, i32 2
  call void @av_freep(ptr noundef %49)
  call void @llvm.lifetime.end.p0(i64 4, ptr %3) #12
  ret void
}