; Function Attrs: nounwind uwtable
define internal void @rdt_close_context(ptr noundef %0) #0 {
  %2 = getelementptr inbounds nuw i8, ptr %0, i64 8
  %3 = load i32, ptr %2, align 8, !tbaa !76
  %4 = icmp sgt i32 %3, 0
  br i1 %4, label %.lr.ph, label %._crit_edge

.lr.ph:                                           ; preds = %1
  %5 = getelementptr inbounds nuw i8, ptr %0, i64 16
  br label %6

6:                                                ; preds = %.lr.ph, %14
  %7 = phi i32 [ %3, %.lr.ph ], [ %15, %14 ]
  %indvars.iv = phi i64 [ 0, %.lr.ph ], [ %indvars.iv.next, %14 ]
  %8 = load ptr, ptr %5, align 8, !tbaa !77
  %9 = getelementptr inbounds nuw ptr, ptr %8, i64 %indvars.iv
  %10 = load ptr, ptr %9, align 8, !tbaa !78
  %.not13 = icmp eq ptr %10, null
  br i1 %.not13, label %14, label %11

11:                                               ; preds = %6
  tail call void @ff_rm_free_rmstream(ptr noundef nonnull %10) #11
  %12 = load ptr, ptr %5, align 8, !tbaa !77
  %13 = getelementptr inbounds nuw ptr, ptr %12, i64 %indvars.iv
  tail call void @av_freep(ptr noundef %13) #11
  %.pre = load i32, ptr %2, align 8, !tbaa !76
  br label %14

14:                                               ; preds = %6, %11
  %15 = phi i32 [ %7, %6 ], [ %.pre, %11 ]
  %indvars.iv.next = add nuw nsw i64 %indvars.iv, 1
  %16 = sext i32 %15 to i64
  %17 = icmp slt i64 %indvars.iv.next, %16
  br i1 %17, label %6, label %._crit_edge, !llvm.loop !83

._crit_edge:                                      ; preds = %14, %1
  %18 = load ptr, ptr %0, align 8, !tbaa !71
  %.not = icmp eq ptr %18, null
  br i1 %.not, label %20, label %19

19:                                               ; preds = %._crit_edge
  tail call void @avformat_close_input(ptr noundef nonnull %0) #11
  br label %20

20:                                               ; preds = %19, %._crit_edge
  %21 = getelementptr inbounds nuw i8, ptr %0, i64 24
  tail call void @av_freep(ptr noundef nonnull %21) #11
  %22 = getelementptr inbounds nuw i8, ptr %0, i64 16
  tail call void @av_freep(ptr noundef nonnull %22) #11
  ret void
}